; Function Attrs: mustprogress nounwind uwtable
define internal void @_ZZN17BarrierSetNMethod21nmethod_entry_barrierEP7nmethodEN19OopKeepAliveClosure6do_oopEPP7oopDesc(ptr nocapture nonnull readnone align 8 %0, ptr noundef %1) unnamed_addr #0 align 2 {
  %3 = load ptr, ptr @_ZN14AccessInternal15RuntimeDispatchILm593988EP7oopDescLNS_11BarrierTypeE2EE10_load_funcE, align 8
  %4 = tail call noundef ptr %3(ptr noundef %1) #8
  %.not = icmp eq ptr %4, null
  br i1 %.not, label %10, label %5

5:                                                ; preds = %2
  %6 = load ptr, ptr @_ZN8Universe14_collectedHeapE, align 8
  %7 = load ptr, ptr %6, align 8
  %8 = getelementptr inbounds i8, ptr %7, i64 272
  %9 = load ptr, ptr %8, align 8
  tail call void %9(ptr noundef nonnull align 8 dereferenceable(104) %6, ptr noundef nonnull %4) #8
  br label %10

10:                                               ; preds = %5, %2
  ret void
}